; Function Attrs: mustprogress nounwind uwtable
define hidden void @_ZN12JvmtiEnvBase17periodic_clean_upEv() local_unnamed_addr #0 align 2 {
  tail call void @_ZN16JvmtiThreadState17periodic_clean_upEv() #18
  %1 = load i32, ptr @_ZN7Threads18_number_of_threadsE, align 4
  %.not13 = icmp eq i32 %1, 0
  br i1 %.not13, label %_ZN16JvmtiEnvIteratorC2Ev.exit, label %2

2:                                                ; preds = %0
  %3 = tail call align 8 ptr @llvm.threadlocal.address.p0(ptr align 8 @_ZN6Thread12_thr_currentE)
  %4 = load ptr, ptr %3, align 8
  %5 = getelementptr inbounds i8, ptr %4, i64 844
  %6 = load volatile i32, ptr %5, align 4
  %7 = add nsw i32 %6, 1
  store volatile i32 %7, ptr %5, align 4
  br label %_ZN16JvmtiEnvIteratorC2Ev.exit

_ZN16JvmtiEnvIteratorC2Ev.exit:                   ; preds = %0, %2
  %8 = load ptr, ptr @_ZN12JvmtiEnvBase17_head_environmentE, align 8
  %.not14 = icmp eq ptr %8, null
  br i1 %.not14, label %._crit_edge, label %.lr.ph

.lr.ph:                                           ; preds = %_ZN16JvmtiEnvIteratorC2Ev.exit, %20
  %.016 = phi ptr [ %.1, %20 ], [ null, %_ZN16JvmtiEnvIteratorC2Ev.exit ]
  %.01115 = phi ptr [ %12, %20 ], [ %8, %_ZN16JvmtiEnvIteratorC2Ev.exit ]
  %9 = getelementptr inbounds i8, ptr %.01115, i64 8
  %.0.i.i.i = load i32, ptr %9, align 1
  %10 = icmp eq i32 %.0.i.i.i, 29166
  %11 = getelementptr inbounds i8, ptr %.01115, i64 16
  %12 = load ptr, ptr %11, align 8
  br i1 %10, label %20, label %13

13:                                               ; preds = %.lr.ph
  %14 = icmp eq ptr %.016, null
  %15 = getelementptr inbounds i8, ptr %.016, i64 16
  %_ZN12JvmtiEnvBase17_head_environmentE.sink = select i1 %14, ptr @_ZN12JvmtiEnvBase17_head_environmentE, ptr %15
  store ptr %12, ptr %_ZN12JvmtiEnvBase17_head_environmentE.sink, align 8
  %16 = getelementptr inbounds i8, ptr %.01115, i64 376
  %17 = load volatile ptr, ptr %16, align 8
  store volatile ptr null, ptr %16, align 8
  %.not.i = icmp eq ptr %17, null
  br i1 %.not.i, label %_ZN12JvmtiEnvBaseD2Ev.exit, label %18

18:                                               ; preds = %13
  tail call void @_ZN11JvmtiTagMapD1Ev(ptr noundef nonnull align 8 dereferenceable(122) %17) #18
  tail call void @_Z8FreeHeapPv(ptr noundef nonnull %17) #18
  br label %_ZN12JvmtiEnvBaseD2Ev.exit

_ZN12JvmtiEnvBaseD2Ev.exit:                       ; preds = %13, %18
  store i32 57005, ptr %9, align 8
  %19 = getelementptr inbounds i8, ptr %.01115, i64 384
  tail call void @_ZN19JvmtiEnvEventEnableD1Ev(ptr noundef nonnull align 8 dereferenceable(24) %19) #18
  tail call void @_Z8FreeHeapPv(ptr noundef nonnull %.01115) #18
  br label %20

20:                                               ; preds = %.lr.ph, %_ZN12JvmtiEnvBaseD2Ev.exit
  %.1 = phi ptr [ %.016, %_ZN12JvmtiEnvBaseD2Ev.exit ], [ %.01115, %.lr.ph ]
  %.not = icmp eq ptr %12, null
  br i1 %.not, label %._crit_edge, label %.lr.ph, !llvm.loop !13

._crit_edge:                                      ; preds = %20, %_ZN16JvmtiEnvIteratorC2Ev.exit
  br i1 %.not13, label %_ZN16JvmtiEnvIteratorD2Ev.exit, label %21

21:                                               ; preds = %._crit_edge
  %22 = tail call align 8 ptr @llvm.threadlocal.address.p0(ptr align 8 @_ZN6Thread12_thr_currentE)
  %23 = load ptr, ptr %22, align 8
  %24 = getelementptr inbounds i8, ptr %23, i64 844
  %25 = load volatile i32, ptr %24, align 4
  %26 = add nsw i32 %25, -1
  store volatile i32 %26, ptr %24, align 4
  br label %_ZN16JvmtiEnvIteratorD2Ev.exit

_ZN16JvmtiEnvIteratorD2Ev.exit:                   ; preds = %._crit_edge, %21
  ret void
}